(dp1
S'OriginalConfig'
p2
ccopy_reg
_reconstructor
p3
(cWMCore.Configuration
Configuration
p4
c__builtin__
object
p5
NtRp6
(dp7
S'Site'
p8
g3
(cWMCore.Configuration
ConfigSection
p9
g5
NtRp10
(dp11
S'_internal_documentation'
p12
S''
sS'_internal_settings'
p13
c__builtin__
set
p14
((lp15
S'storageSite'
p16
atRp17
sS'_internal_name'
p18
g8
sS'_internal_docstrings'
p19
(dp20
sS'_internal_children'
p21
g14
((ltRp22
sg16
S'T2_BE_IIHE'
p23
sS'_internal_parent_ref'
p24
NsbsS'_internal_sections'
p25
(lp26
S'General'
p27
aS'JobType'
p28
aS'Data'
p29
ag8
asg27
g3
(g9
g5
NtRp30
(dp31
g12
S''
sg13
g14
((lp32
S'transferOutputs'
p33
aS'workArea'
p34
aS'requestName'
p35
atRp36
sg18
g27
sg19
(dp37
sg33
I01
sg21
g14
((ltRp38
sg35
S'MC13TeV_TTJets_powheg'
p39
sg24
Nsg34
S'grid'
p40
sbsS'_internal_webapps'
p41
(lp42
sS'_internal_components'
p43
(lp44
sg29
g3
(g9
g5
NtRp45
(dp46
S'inputDataset'
p47
S'/TT_TuneCUETP8M1_13TeV-powheg-pythia8/RunIISpring16MiniAODv1-PUSpring16RAWAODSIM_80X_mcRun2_asymptotic_2016_v3_ext3-v1/MINIAODSIM'
p48
sS'totalUnits'
p49
I1
sS'splitting'
p50
S'LumiBased'
p51
sS'unitsPerJob'
p52
I1
sg12
S''
sg13
g14
((lp53
g47
ag49
ag52
aS'ignoreLocality'
p54
aS'inputDBS'
p55
ag50
aS'outLFNDirBase'
p56
aS'publication'
p57
atRp58
sg54
I00
sg18
g29
sg55
S'global'
p59
sg19
(dp60
sg21
g14
((ltRp61
sg56
S'/store/user/mgul/test/0e0f217/'
p62
sg24
Nsg57
I00
sbsg28
g3
(g9
g5
NtRp63
(dp64
S'pyCfgParams'
p65
(lp66
S'runOnData=False'
p67
asg12
S''
sg13
g14
((lp68
S'psetName'
p69
aS'pluginName'
p70
aS'inputFiles'
p71
ag65
aS'disableAutomaticOutputCollection'
p72
atRp73
sg18
g28
sg19
(dp74
sg70
S'Analysis'
p75
sg21
g14
((ltRp76
sg69
S'/afs/cern.ch/work/m/mgul/public/Hto_ttbar/8_0_11_tuples/CMSSW_8_0_11/src/Tupel/Tupel/scripts/simple_run_80X_cfg.py'
p77
sg24
Nsg71
(lp78
S'Spring16_25nsV6_MC.db'
p79
asg72
I00
sbsbsS'voGroup'
p80
S''
sS'Server'
p81
S'cmsweb.cern.ch'
p82
sS'instance'
p83
S'prod'
p84
sS'RequestName'
p85
S'160812_082508:mgul_crab_MC13TeV_TTJets_powheg'
p86
sS'voRole'
p87
S'NULL'
p88
sS'Port'
p89
S''
s.