(dp1
S'OriginalConfig'
p2
ccopy_reg
_reconstructor
p3
(cWMCore.Configuration
Configuration
p4
c__builtin__
object
p5
NtRp6
(dp7
S'Site'
p8
g3
(cWMCore.Configuration
ConfigSection
p9
g5
NtRp10
(dp11
S'_internal_documentation'
p12
S''
sS'_internal_settings'
p13
c__builtin__
set
p14
((lp15
S'storageSite'
p16
atRp17
sS'_internal_name'
p18
g8
sS'_internal_docstrings'
p19
(dp20
sS'_internal_children'
p21
g14
((ltRp22
sg16
S'T2_BE_IIHE'
p23
sS'_internal_parent_ref'
p24
NsbsS'_internal_sections'
p25
(lp26
S'General'
p27
aS'JobType'
p28
aS'Data'
p29
ag8
asg27
g3
(g9
g5
NtRp30
(dp31
g12
S''
sg13
g14
((lp32
S'transferOutputs'
p33
aS'workArea'
p34
aS'requestName'
p35
atRp36
sg18
g27
sg19
(dp37
sg33
I01
sg21
g14
((ltRp38
sg35
S'Data13TeV_SingleMuon_2016B'
p39
sg24
Nsg34
S'grid'
p40
sbsS'_internal_webapps'
p41
(lp42
sS'_internal_components'
p43
(lp44
sg29
g3
(g9
g5
NtRp45
(dp46
S'inputDataset'
p47
S'/SingleMuon/Run2016B-PromptReco-v2/MINIAOD'
p48
sS'totalUnits'
p49
I1
sS'splitting'
p50
S'LumiBased'
p51
sS'unitsPerJob'
p52
I1
sg12
S''
sg13
g14
((lp53
g47
ag49
ag52
aS'ignoreLocality'
p54
ag50
aS'inputDBS'
p55
aS'lumiMask'
p56
aS'outLFNDirBase'
p57
aS'publication'
p58
atRp59
sg54
I00
sg18
g29
sg55
S'global'
p60
sg19
(dp61
sg21
g14
((ltRp62
sg57
S'/store/user/mgul/test/0e0f217/'
p63
sg24
Nsg56
S'/afs/cern.ch/cms/CAF/CMSCOMM/COMM_DQM/certification/Collisions16/13TeV/Cert_271036-277148_13TeV_PromptReco_Collisions16_JSON.txt'
p64
sg58
I00
sbsg28
g3
(g9
g5
NtRp65
(dp66
S'pyCfgParams'
p67
(lp68
S'runOnData=True'
p69
asg12
S''
sg13
g14
((lp70
S'psetName'
p71
aS'pluginName'
p72
aS'inputFiles'
p73
ag67
aS'disableAutomaticOutputCollection'
p74
atRp75
sg18
g28
sg19
(dp76
sg72
S'Analysis'
p77
sg21
g14
((ltRp78
sg71
S'/afs/cern.ch/work/m/mgul/public/Hto_ttbar/8_0_11_tuples/CMSSW_8_0_11/src/Tupel/Tupel/scripts/simple_run_80X_cfg.py'
p79
sg24
Nsg73
(lp80
S'Spring16_25nsV6_DATA.db'
p81
asg74
I00
sbsbsS'voGroup'
p82
S''
sS'Server'
p83
S'cmsweb.cern.ch'
p84
sS'instance'
p85
S'prod'
p86
sS'RequestName'
p87
S'160812_082455:mgul_crab_Data13TeV_SingleMuon_2016B'
p88
sS'voRole'
p89
S'NULL'
p90
sS'Port'
p91
S''
s.